; Function Attrs: mustprogress nofree norecurse nosync nounwind memory(readwrite, inaccessiblemem: none) uwtable
define dso_local void @_ZN23btReducedDeformableBody21updateReducedVelocityEf(ptr noundef nonnull readonly align 8 captures(none) dereferenceable(3176) %0, float noundef %1) local_unnamed_addr #13 align 2 {
  %3 = getelementptr inbounds nuw i8, ptr %0, i64 2712
  %4 = load i32, ptr %3, align 8, !tbaa !132
  %5 = icmp sgt i32 %4, 0
  br i1 %5, label %.lr.ph, label %._crit_edge

.lr.ph:                                           ; preds = %2
  %6 = getelementptr inbounds nuw i8, ptr %0, i64 2928
  %7 = load ptr, ptr %6, align 8, !tbaa !120
  %8 = getelementptr inbounds nuw i8, ptr %0, i64 2960
  %9 = load ptr, ptr %8, align 8, !tbaa !120
  %10 = getelementptr inbounds nuw i8, ptr %0, i64 2864
  %11 = load ptr, ptr %10, align 8, !tbaa !120
  %12 = getelementptr inbounds nuw i8, ptr %0, i64 2832
  %13 = load ptr, ptr %12, align 8, !tbaa !120
  %wide.trip.count = zext nneg i32 %4 to i64
  br label %14

._crit_edge:                                      ; preds = %14, %2
  ret void

14:                                               ; preds = %.lr.ph, %14
  %indvars.iv = phi i64 [ 0, %.lr.ph ], [ %indvars.iv.next, %14 ]
  %15 = getelementptr inbounds nuw float, ptr %7, i64 %indvars.iv
  %16 = load float, ptr %15, align 4, !tbaa !138
  %17 = getelementptr inbounds nuw float, ptr %9, i64 %indvars.iv
  %18 = load float, ptr %17, align 4, !tbaa !138
  %19 = fadd float %16, %18
  %20 = fmul float %1, %19
  %21 = getelementptr inbounds nuw float, ptr %11, i64 %indvars.iv
  %22 = load float, ptr %21, align 4, !tbaa !138
  %23 = fadd float %22, %20
  %24 = getelementptr inbounds nuw float, ptr %13, i64 %indvars.iv
  store float %23, ptr %24, align 4, !tbaa !138
  %indvars.iv.next = add nuw nsw i64 %indvars.iv, 1
  %exitcond.not = icmp eq i64 %indvars.iv.next, %wide.trip.count
  br i1 %exitcond.not, label %._crit_edge, label %14, !llvm.loop !192
}